; ModuleID = 'source-C-CXX/52/1475.c'
source_filename = "source-C-CXX/52/1475.c"
target datalayout = "e-m:e-p270:32:32-p271:32:32-p272:64:64-i64:64-f80:128-n8:16:32:64-S128"
target triple = "x86_64-pc-linux-gnu"

@.str = private unnamed_addr constant [3 x i8] c"%d\00", align 1
@.str.1 = private unnamed_addr constant [4 x i8] c"%d,\00", align 1

; Function Attrs: nofree nounwind sspstrong uwtable
define dso_local i32 @main() local_unnamed_addr #0 {
  %1 = alloca [300 x i32], align 16
  %2 = alloca [300 x i32], align 16
  %3 = alloca i32, align 4
  %4 = bitcast [300 x i32]* %1 to i8*
  call void @llvm.lifetime.start.p0i8(i64 1200, i8* nonnull %4) #3
  %5 = bitcast [300 x i32]* %2 to i8*
  call void @llvm.lifetime.start.p0i8(i64 1200, i8* nonnull %5) #3
  %6 = bitcast i32* %3 to i8*
  call void @llvm.lifetime.start.p0i8(i64 4, i8* nonnull %6) #3
  %7 = call i32 (i8*, ...) @__isoc99_scanf(i8* getelementptr inbounds ([3 x i8], [3 x i8]* @.str, i64 0, i64 0), i32* nonnull %3)
  %8 = load i32, i32* %3, align 4, !tbaa !5
  %9 = icmp sgt i32 %8, 0
  br i1 %9, label %10, label %63

10:                                               ; preds = %0, %10
  %11 = phi i64 [ %14, %10 ], [ 0, %0 ]
  %12 = getelementptr inbounds [300 x i32], [300 x i32]* %1, i64 0, i64 %11
  %13 = call i32 (i8*, ...) @__isoc99_scanf(i8* getelementptr inbounds ([3 x i8], [3 x i8]* @.str, i64 0, i64 0), i32* nonnull %12)
  %14 = add nuw nsw i64 %11, 1
  %15 = load i32, i32* %3, align 4, !tbaa !5
  %16 = sext i32 %15 to i64
  %17 = icmp slt i64 %14, %16
  br i1 %17, label %10, label %18, !llvm.loop !9

18:                                               ; preds = %10
  %19 = getelementptr inbounds [300 x i32], [300 x i32]* %1, i64 0, i64 0
  %20 = load i32, i32* %19, align 16, !tbaa !5
  %21 = getelementptr inbounds [300 x i32], [300 x i32]* %2, i64 0, i64 0
  store i32 %20, i32* %21, align 16, !tbaa !5
  %22 = icmp sgt i32 %15, 1
  br i1 %22, label %23, label %63

23:                                               ; preds = %18
  %24 = zext i32 %15 to i64
  br label %25

25:                                               ; preds = %23, %50
  %26 = phi i64 [ 1, %23 ], [ %52, %50 ]
  %27 = phi i32 [ 1, %23 ], [ %51, %50 ]
  %28 = getelementptr inbounds [300 x i32], [300 x i32]* %1, i64 0, i64 %26
  %29 = load i32, i32* %28, align 4, !tbaa !5
  br label %35

30:                                               ; preds = %50
  %31 = icmp sgt i32 %51, 1
  br i1 %31, label %32, label %63

32:                                               ; preds = %30
  %33 = add nsw i32 %51, -1
  %34 = zext i32 %33 to i64
  br label %54

35:                                               ; preds = %25, %35
  %36 = phi i64 [ %26, %25 ], [ %44, %35 ]
  %37 = add i64 %36, 4294967295
  %38 = and i64 %37, 4294967295
  %39 = getelementptr inbounds [300 x i32], [300 x i32]* %2, i64 0, i64 %38
  %40 = load i32, i32* %39, align 4, !tbaa !5
  %41 = icmp ne i32 %29, %40
  %42 = icmp sgt i64 %36, 1
  %43 = and i1 %42, %41
  %44 = add nsw i64 %36, -1
  br i1 %43, label %35, label %45, !llvm.loop !11

45:                                               ; preds = %35
  br i1 %41, label %46, label %50

46:                                               ; preds = %45
  %47 = sext i32 %27 to i64
  %48 = getelementptr inbounds [300 x i32], [300 x i32]* %2, i64 0, i64 %47
  store i32 %29, i32* %48, align 4, !tbaa !5
  %49 = add nsw i32 %27, 1
  br label %50

50:                                               ; preds = %45, %46
  %51 = phi i32 [ %49, %46 ], [ %27, %45 ]
  %52 = add nuw nsw i64 %26, 1
  %53 = icmp eq i64 %52, %24
  br i1 %53, label %30, label %25, !llvm.loop !12

54:                                               ; preds = %32, %54
  %55 = phi i64 [ 0, %32 ], [ %59, %54 ]
  %56 = getelementptr inbounds [300 x i32], [300 x i32]* %2, i64 0, i64 %55
  %57 = load i32, i32* %56, align 4, !tbaa !5
  %58 = call i32 (i8*, ...) @printf(i8* nonnull dereferenceable(1) getelementptr inbounds ([4 x i8], [4 x i8]* @.str.1, i64 0, i64 0), i32 %57)
  %59 = add nuw nsw i64 %55, 1
  %60 = icmp eq i64 %59, %34
  br i1 %60, label %61, label %54, !llvm.loop !13

61:                                               ; preds = %54
  %62 = zext i32 %33 to i64
  br label %63

63:                                               ; preds = %0, %18, %30, %61
  %64 = phi i64 [ %62, %61 ], [ 0, %30 ], [ 0, %18 ], [ 0, %0 ]
  %65 = getelementptr inbounds [300 x i32], [300 x i32]* %2, i64 0, i64 %64
  %66 = load i32, i32* %65, align 4, !tbaa !5
  %67 = call i32 (i8*, ...) @printf(i8* nonnull dereferenceable(1) getelementptr inbounds ([3 x i8], [3 x i8]* @.str, i64 0, i64 0), i32 %66)
  call void @llvm.lifetime.end.p0i8(i64 4, i8* nonnull %6) #3
  call void @llvm.lifetime.end.p0i8(i64 1200, i8* nonnull %5) #3
  call void @llvm.lifetime.end.p0i8(i64 1200, i8* nonnull %4) #3
  ret i32 0
}

; Function Attrs: argmemonly mustprogress nofree nosync nounwind willreturn
declare void @llvm.lifetime.start.p0i8(i64 immarg, i8* nocapture) #1

; Function Attrs: nofree nounwind
declare noundef i32 @__isoc99_scanf(i8* nocapture noundef readonly, ...) local_unnamed_addr #2

; Function Attrs: nofree nounwind
declare noundef i32 @printf(i8* nocapture noundef readonly, ...) local_unnamed_addr #2

; Function Attrs: argmemonly mustprogress nofree nosync nounwind willreturn
declare void @llvm.lifetime.end.p0i8(i64 immarg, i8* nocapture) #1


!llvm.module.flags = !{!0, !1, !2, !3}
!llvm.ident = !{!4}

!0 = !{i32 1, !"wchar_size", i32 4}
!1 = !{i32 7, !"PIC Level", i32 2}
!2 = !{i32 7, !"PIE Level", i32 2}
!3 = !{i32 7, !"uwtable", i32 1}
!4 = !{!"clang version 13.0.0"}
!5 = !{!6, !6, i64 0}
!6 = !{!"int", !7, i64 0}
!7 = !{!"omnipotent char", !8, i64 0}
!8 = !{!"Simple C/C++ TBAA"}
!9 = distinct !{!9, !10}
!10 = !{!"llvm.loop.mustprogress"}
!11 = distinct !{!11, !10}
!12 = distinct !{!12, !10}
!13 = distinct !{!13, !10}
